; Function Attrs: mustprogress uwtable
define noundef zeroext i1 @_ZN5draco38SequentialQuantizationAttributeDecoder4InitEPNS_17PointCloudDecoderEi(ptr noundef nonnull align 8 dereferenceable(96) %0, ptr noundef %1, i32 noundef %2) unnamed_addr #3 align 2 {
  %4 = tail call noundef zeroext i1 @_ZN5draco33SequentialIntegerAttributeDecoder4InitEPNS_17PointCloudDecoderEi(ptr noundef nonnull align 8 dereferenceable(48) %0, ptr noundef %1, i32 noundef %2)
  br i1 %4, label %5, label %15

5:                                                ; preds = %3
  %6 = getelementptr inbounds i8, ptr %1, i64 8
  %7 = load ptr, ptr %6, align 8
  %8 = getelementptr inbounds i8, ptr %7, i64 16
  %9 = sext i32 %2 to i64
  %10 = load ptr, ptr %8, align 8
  %11 = getelementptr inbounds %"class.std::unique_ptr", ptr %10, i64 %9
  %12 = load ptr, ptr %11, align 8
  %13 = getelementptr inbounds i8, ptr %12, i64 28
  %14 = load i32, ptr %13, align 4
  %.not = icmp eq i32 %14, 9
  br label %15

15:                                               ; preds = %5, %3
  %.0 = phi i1 [ false, %3 ], [ %.not, %5 ]
  ret i1 %.0
}